target datalayout = "e-m:e-p270:32:32-p271:32:32-p272:64:64-i64:64-i128:128-f80:128-n8:16:32:64-S128"
target triple = "x86_64-pc-linux-gnu"

%"class.cvc5::internal::theory::quantifiers::ieval::TermEvaluator" = type <{ %"class.cvc5::internal::EnvObj", i32, [4 x i8] }>
%"class.cvc5::internal::EnvObj" = type { ptr, ptr }
%"class.cvc5::internal::theory::quantifiers::ieval::TermEvaluatorEntailed" = type <{ %"class.cvc5::internal::theory::quantifiers::ieval::TermEvaluator.base", [4 x i8], ptr, ptr, i8, [7 x i8] }>
%"class.cvc5::internal::theory::quantifiers::ieval::TermEvaluator.base" = type <{ %"class.cvc5::internal::EnvObj", i32 }>

; Function Attrs: mustprogress uwtable
define hidden void @_ZN4cvc58internal6theory11quantifiers5ieval13TermEvaluatorC2ERNS0_3EnvENS3_17TermEvaluatorModeE(ptr noundef nonnull align 8 dereferenceable(20) %0, ptr noundef nonnull align 8 dereferenceable(696) %1, i32 noundef %2) unnamed_addr #4 align 2 {
  %4 = alloca ptr, align 8
  %5 = alloca ptr, align 8
  %6 = alloca i32, align 4
  store ptr %0, ptr %4, align 8, !tbaa !3
  store ptr %1, ptr %5, align 8, !tbaa !8
  store i32 %2, ptr %6, align 4, !tbaa !10
  %7 = load ptr, ptr %4, align 8
  %8 = load ptr, ptr %5, align 8, !tbaa !8
  call void @_ZN4cvc58internal6EnvObjC2ERNS0_3EnvE(ptr noundef nonnull align 8 dereferenceable(16) %7, ptr noundef nonnull align 8 dereferenceable(696) %8)
  store ptr getelementptr inbounds inrange(-16, 40) ({ [7 x ptr] }, ptr @_ZTVN4cvc58internal6theory11quantifiers5ieval13TermEvaluatorE, i32 0, i32 0, i32 2), ptr %7, align 8, !tbaa !12
  %9 = getelementptr inbounds nuw %"class.cvc5::internal::theory::quantifiers::ieval::TermEvaluator", ptr %7, i32 0, i32 1
  %10 = load i32, ptr %6, align 4, !tbaa !10
  store i32 %10, ptr %9, align 8, !tbaa !14
  ret void
}

; Function Attrs: mustprogress uwtable
define hidden void @_ZN4cvc58internal6theory11quantifiers5ieval21TermEvaluatorEntailedC2ERNS0_3EnvENS3_17TermEvaluatorModeERNS2_16QuantifiersStateERNS2_6TermDbE(ptr noundef nonnull align 8 dereferenceable(41) %0, ptr noundef nonnull align 8 dereferenceable(696) %1, i32 noundef %2, ptr noundef nonnull align 8 dereferenceable(376) %3, ptr noundef nonnull align 8 dereferenceable(1088) %4) unnamed_addr #4 align 2 {
  %6 = alloca ptr, align 8
  %7 = alloca ptr, align 8
  %8 = alloca i32, align 4
  %9 = alloca ptr, align 8
  %10 = alloca ptr, align 8
  store ptr %0, ptr %6, align 8, !tbaa !17
  store ptr %1, ptr %7, align 8, !tbaa !8
  store i32 %2, ptr %8, align 4, !tbaa !10
  store ptr %3, ptr %9, align 8, !tbaa !19
  store ptr %4, ptr %10, align 8, !tbaa !21
  %11 = load ptr, ptr %6, align 8
  %12 = load ptr, ptr %7, align 8, !tbaa !8
  %13 = load i32, ptr %8, align 4, !tbaa !10
  call void @_ZN4cvc58internal6theory11quantifiers5ieval13TermEvaluatorC2ERNS0_3EnvENS3_17TermEvaluatorModeE(ptr noundef nonnull align 8 dereferenceable(20) %11, ptr noundef nonnull align 8 dereferenceable(696) %12, i32 noundef %13)
  store ptr getelementptr inbounds inrange(-16, 40) ({ [7 x ptr] }, ptr @_ZTVN4cvc58internal6theory11quantifiers5ieval21TermEvaluatorEntailedE, i32 0, i32 0, i32 2), ptr %11, align 8, !tbaa !12
  %14 = getelementptr inbounds nuw %"class.cvc5::internal::theory::quantifiers::ieval::TermEvaluatorEntailed", ptr %11, i32 0, i32 2
  %15 = load ptr, ptr %9, align 8, !tbaa !19
  store ptr %15, ptr %14, align 8, !tbaa !19
  %16 = getelementptr inbounds nuw %"class.cvc5::internal::theory::quantifiers::ieval::TermEvaluatorEntailed", ptr %11, i32 0, i32 3
  %17 = load ptr, ptr %10, align 8, !tbaa !21
  store ptr %17, ptr %16, align 8, !tbaa !21
  %18 = getelementptr inbounds nuw %"class.cvc5::internal::theory::quantifiers::ieval::TermEvaluatorEntailed", ptr %11, i32 0, i32 4
  store i8 0, ptr %18, align 8, !tbaa !23
  %19 = load i32, ptr %8, align 4, !tbaa !10
  %20 = icmp eq i32 %19, 1
  br i1 %20, label %24, label %21

21:                                               ; preds = %5
  %22 = load i32, ptr %8, align 4, !tbaa !10
  %23 = icmp eq i32 %22, 2
  br label %24

24:                                               ; preds = %21, %5
  %25 = phi i1 [ true, %5 ], [ %23, %21 ]
  %26 = getelementptr inbounds nuw %"class.cvc5::internal::theory::quantifiers::ieval::TermEvaluatorEntailed", ptr %11, i32 0, i32 4
  %27 = zext i1 %25 to i8
  store i8 %27, ptr %26, align 8, !tbaa !23
  ret void
}