; Function Attrs: mustprogress uwtable
define hidden void @_ZN4cvc58internal6theory11quantifiers5ieval21TermEvaluatorEntailedC2ERNS0_3EnvENS3_17TermEvaluatorModeERNS2_16QuantifiersStateERNS2_6TermDbE(ptr noundef nonnull align 8 dereferenceable(41) %0, ptr noundef nonnull align 8 dereferenceable(696) %1, i32 noundef %2, ptr noundef nonnull align 8 dereferenceable(376) %3, ptr noundef nonnull align 8 dereferenceable(1088) %4) unnamed_addr #3 align 2 {
  tail call void @_ZN4cvc58internal6EnvObjC2ERNS0_3EnvE(ptr noundef nonnull align 8 dereferenceable(20) %0, ptr noundef nonnull align 8 dereferenceable(696) %1)
  %6 = getelementptr inbounds nuw i8, ptr %0, i64 16
  store i32 %2, ptr %6, align 8, !tbaa !6
  store ptr getelementptr inbounds nuw inrange(-16, 40) (i8, ptr @_ZTVN4cvc58internal6theory11quantifiers5ieval21TermEvaluatorEntailedE, i64 16), ptr %0, align 8, !tbaa !3
  %7 = getelementptr inbounds nuw i8, ptr %0, i64 24
  store ptr %3, ptr %7, align 8, !tbaa !13
  %8 = getelementptr inbounds nuw i8, ptr %0, i64 32
  store ptr %4, ptr %8, align 8, !tbaa !15
  %9 = getelementptr inbounds nuw i8, ptr %0, i64 40
  %10 = add i32 %2, -1
  %11 = icmp ult i32 %10, 2
  %12 = zext i1 %11 to i8
  store i8 %12, ptr %9, align 8, !tbaa !17
  ret void
}